target datalayout = "e-m:e-p270:32:32-p271:32:32-p272:64:64-i64:64-i128:128-f80:128-n8:16:32:64-S128"
target triple = "x86_64-pc-linux-gnu"

%class.NumberlikeArray = type { i32, i32, ptr }
%class.BigUnsigned = type { %class.NumberlikeArray }

; Function Attrs: mustprogress uwtable
define linkonce_odr void @_ZN15NumberlikeArrayImEaSERKS0_(ptr noundef nonnull align 8 dereferenceable(16) %0, ptr noundef nonnull align 8 dereferenceable(16) %1) #0 comdat align 2 {
  %3 = alloca ptr, align 8
  %4 = alloca ptr, align 8
  %5 = alloca i32, align 4
  store ptr %0, ptr %3, align 8, !tbaa !13
  store ptr %1, ptr %4, align 8, !tbaa !13
  %6 = load ptr, ptr %3, align 8
  %7 = load ptr, ptr %4, align 8, !tbaa !13
  %8 = icmp eq ptr %6, %7
  br i1 %8, label %9, label %10

9:                                                ; preds = %2
  br label %39

10:                                               ; preds = %2
  %11 = load ptr, ptr %4, align 8, !tbaa !13
  %12 = getelementptr inbounds nuw %class.NumberlikeArray, ptr %11, i32 0, i32 1
  %13 = load i32, ptr %12, align 4, !tbaa !19
  %14 = getelementptr inbounds nuw %class.NumberlikeArray, ptr %6, i32 0, i32 1
  store i32 %13, ptr %14, align 4, !tbaa !19
  %15 = getelementptr inbounds nuw %class.NumberlikeArray, ptr %6, i32 0, i32 1
  %16 = load i32, ptr %15, align 4, !tbaa !19
  call void @_ZN15NumberlikeArrayImE8allocateEj(ptr noundef nonnull align 8 dereferenceable(16) %6, i32 noundef %16)
  call void @llvm.lifetime.start.p0(i64 4, ptr %5) #7
  store i32 0, ptr %5, align 4, !tbaa !21
  br label %17

17:                                               ; preds = %35, %10
  %18 = load i32, ptr %5, align 4, !tbaa !21
  %19 = getelementptr inbounds nuw %class.NumberlikeArray, ptr %6, i32 0, i32 1
  %20 = load i32, ptr %19, align 4, !tbaa !19
  %21 = icmp ult i32 %18, %20
  br i1 %21, label %22, label %38

22:                                               ; preds = %17
  %23 = load ptr, ptr %4, align 8, !tbaa !13
  %24 = getelementptr inbounds nuw %class.NumberlikeArray, ptr %23, i32 0, i32 2
  %25 = load ptr, ptr %24, align 8, !tbaa !20
  %26 = load i32, ptr %5, align 4, !tbaa !21
  %27 = zext i32 %26 to i64
  %28 = getelementptr inbounds nuw i64, ptr %25, i64 %27
  %29 = load i64, ptr %28, align 8, !tbaa !11
  %30 = getelementptr inbounds nuw %class.NumberlikeArray, ptr %6, i32 0, i32 2
  %31 = load ptr, ptr %30, align 8, !tbaa !20
  %32 = load i32, ptr %5, align 4, !tbaa !21
  %33 = zext i32 %32 to i64
  %34 = getelementptr inbounds nuw i64, ptr %31, i64 %33
  store i64 %29, ptr %34, align 8, !tbaa !11
  br label %35

35:                                               ; preds = %22
  %36 = load i32, ptr %5, align 4, !tbaa !21
  %37 = add i32 %36, 1
  store i32 %37, ptr %5, align 4, !tbaa !21
  br label %17, !llvm.loop !64

38:                                               ; preds = %17
  call void @llvm.lifetime.end.p0(i64 4, ptr %5) #7
  br label %39

39:                                               ; preds = %38, %9
  ret void
}

; Function Attrs: mustprogress nounwind uwtable
define linkonce_odr void @_ZN15NumberlikeArrayImEC2Ev(ptr noundef nonnull align 8 dereferenceable(16) %0) unnamed_addr #1 comdat align 2 {
  %2 = alloca ptr, align 8
  store ptr %0, ptr %2, align 8, !tbaa !13
  %3 = load ptr, ptr %2, align 8
  %4 = getelementptr inbounds nuw %class.NumberlikeArray, ptr %3, i32 0, i32 0
  store i32 0, ptr %4, align 8, !tbaa !15
  %5 = getelementptr inbounds nuw %class.NumberlikeArray, ptr %3, i32 0, i32 1
  store i32 0, ptr %5, align 4, !tbaa !19
  %6 = getelementptr inbounds nuw %class.NumberlikeArray, ptr %3, i32 0, i32 2
  store ptr null, ptr %6, align 8, !tbaa !20
  ret void
}

; Function Attrs: mustprogress nounwind uwtable
define linkonce_odr void @_ZN11BigUnsigned15zapLeadingZerosEv(ptr noundef nonnull align 8 dereferenceable(16) %0) #1 comdat align 2 {
  %2 = alloca ptr, align 8
  store ptr %0, ptr %2, align 8, !tbaa !6
  %3 = load ptr, ptr %2, align 8
  br label %4

4:                                                ; preds = %20, %1
  %5 = getelementptr inbounds nuw %class.NumberlikeArray, ptr %3, i32 0, i32 1
  %6 = load i32, ptr %5, align 4, !tbaa !19
  %7 = icmp ugt i32 %6, 0
  br i1 %7, label %8, label %18

8:                                                ; preds = %4
  %9 = getelementptr inbounds nuw %class.NumberlikeArray, ptr %3, i32 0, i32 2
  %10 = load ptr, ptr %9, align 8, !tbaa !20
  %11 = getelementptr inbounds nuw %class.NumberlikeArray, ptr %3, i32 0, i32 1
  %12 = load i32, ptr %11, align 4, !tbaa !19
  %13 = sub i32 %12, 1
  %14 = zext i32 %13 to i64
  %15 = getelementptr inbounds nuw i64, ptr %10, i64 %14
  %16 = load i64, ptr %15, align 8, !tbaa !11
  %17 = icmp eq i64 %16, 0
  br label %18

18:                                               ; preds = %8, %4
  %19 = phi i1 [ false, %4 ], [ %17, %8 ]
  br i1 %19, label %20, label %24

20:                                               ; preds = %18
  %21 = getelementptr inbounds nuw %class.NumberlikeArray, ptr %3, i32 0, i32 1
  %22 = load i32, ptr %21, align 4, !tbaa !19
  %23 = add i32 %22, -1
  store i32 %23, ptr %21, align 4, !tbaa !19
  br label %4, !llvm.loop !28

24:                                               ; preds = %18
  ret void
}

; Function Attrs: mustprogress uwtable
define linkonce_odr void @_ZN15NumberlikeArrayImE8allocateEj(ptr noundef nonnull align 8 dereferenceable(16) %0, i32 noundef %1) #0 comdat align 2 {
  %3 = alloca ptr, align 8
  %4 = alloca i32, align 4
  store ptr %0, ptr %3, align 8, !tbaa !13
  store i32 %1, ptr %4, align 4, !tbaa !21
  %5 = load ptr, ptr %3, align 8
  %6 = load i32, ptr %4, align 4, !tbaa !21
  %7 = getelementptr inbounds nuw %class.NumberlikeArray, ptr %5, i32 0, i32 0
  %8 = load i32, ptr %7, align 8, !tbaa !15
  %9 = icmp ugt i32 %6, %8
  br i1 %9, label %10, label %27

10:                                               ; preds = %2
  %11 = getelementptr inbounds nuw %class.NumberlikeArray, ptr %5, i32 0, i32 2
  %12 = load ptr, ptr %11, align 8, !tbaa !20
  %13 = icmp eq ptr %12, null
  br i1 %13, label %15, label %14

14:                                               ; preds = %10
  call void @_ZdaPv(ptr noundef %12) #10
  br label %15

15:                                               ; preds = %14, %10
  %16 = load i32, ptr %4, align 4, !tbaa !21
  %17 = getelementptr inbounds nuw %class.NumberlikeArray, ptr %5, i32 0, i32 0
  store i32 %16, ptr %17, align 8, !tbaa !15
  %18 = getelementptr inbounds nuw %class.NumberlikeArray, ptr %5, i32 0, i32 0
  %19 = load i32, ptr %18, align 8, !tbaa !15
  %20 = zext i32 %19 to i64
  %21 = call { i64, i1 } @llvm.umul.with.overflow.i64(i64 %20, i64 8)
  %22 = extractvalue { i64, i1 } %21, 1
  %23 = extractvalue { i64, i1 } %21, 0
  %24 = select i1 %22, i64 -1, i64 %23
  %25 = call noalias noundef nonnull ptr @_Znam(i64 noundef %24) #8
  %26 = getelementptr inbounds nuw %class.NumberlikeArray, ptr %5, i32 0, i32 2
  store ptr %25, ptr %26, align 8, !tbaa !20
  br label %27

27:                                               ; preds = %15, %2
  ret void
}

; Function Attrs: mustprogress nounwind uwtable
define linkonce_odr void @_ZN15NumberlikeArrayImED2Ev(ptr noundef nonnull align 8 dereferenceable(16) %0) unnamed_addr #1 comdat align 2 {
  %2 = alloca ptr, align 8
  store ptr %0, ptr %2, align 8, !tbaa !13
  %3 = load ptr, ptr %2, align 8
  %4 = getelementptr inbounds nuw %class.NumberlikeArray, ptr %3, i32 0, i32 2
  %5 = load ptr, ptr %4, align 8, !tbaa !20
  %6 = icmp eq ptr %5, null
  br i1 %6, label %8, label %7

7:                                                ; preds = %1
  call void @_ZdaPv(ptr noundef %5) #10
  br label %8

8:                                                ; preds = %7, %1
  ret void
}

; Function Attrs: mustprogress uwtable
define linkonce_odr void @_ZN11BigUnsignedaSERKS_(ptr noundef nonnull align 8 dereferenceable(16) %0, ptr noundef nonnull align 8 dereferenceable(16) %1) #0 comdat align 2 {
  %3 = alloca ptr, align 8
  %4 = alloca ptr, align 8
  store ptr %0, ptr %3, align 8, !tbaa !6
  store ptr %1, ptr %4, align 8, !tbaa !6
  %5 = load ptr, ptr %3, align 8
  %6 = load ptr, ptr %4, align 8, !tbaa !6
  call void @_ZN15NumberlikeArrayImEaSERKS0_(ptr noundef nonnull align 8 dereferenceable(16) %5, ptr noundef nonnull align 8 dereferenceable(16) %6)
  ret void
}

; Function Attrs: mustprogress uwtable
define linkonce_odr void @_ZN11BigUnsignedC2Ev(ptr noundef nonnull align 8 dereferenceable(16) %0) unnamed_addr #0 comdat align 2 {
  %2 = alloca ptr, align 8
  store ptr %0, ptr %2, align 8, !tbaa !6
  %3 = load ptr, ptr %2, align 8
  call void @_ZN15NumberlikeArrayImEC2Ev(ptr noundef nonnull align 8 dereferenceable(16) %3)
  ret void
}

; Function Attrs: mustprogress uwtable
define void @_ZN11BigUnsigned6bitXorERKS_S1_(ptr noundef nonnull align 8 dereferenceable(16) %0, ptr noundef nonnull align 8 dereferenceable(16) %1, ptr noundef nonnull align 8 dereferenceable(16) %2) #0 align 2 personality ptr @__gxx_personality_v0 {
  %4 = alloca ptr, align 8
  %5 = alloca ptr, align 8
  %6 = alloca ptr, align 8
  %7 = alloca %class.BigUnsigned, align 8
  %8 = alloca ptr, align 8
  %9 = alloca i32, align 4
  %10 = alloca i32, align 4
  %11 = alloca ptr, align 8
  %12 = alloca ptr, align 8
  store ptr %0, ptr %4, align 8, !tbaa !6
  store ptr %1, ptr %5, align 8, !tbaa !6
  store ptr %2, ptr %6, align 8, !tbaa !6
  %13 = load ptr, ptr %4, align 8
  %14 = load ptr, ptr %5, align 8, !tbaa !6
  %15 = icmp eq ptr %13, %14
  br i1 %15, label %19, label %16

16:                                               ; preds = %3
  %17 = load ptr, ptr %6, align 8, !tbaa !6
  %18 = icmp eq ptr %13, %17
  br i1 %18, label %19, label %28

19:                                               ; preds = %16, %3
  call void @llvm.lifetime.start.p0(i64 16, ptr %7) #7
  call void @_ZN11BigUnsignedC2Ev(ptr noundef nonnull align 8 dereferenceable(16) %7)
  %20 = load ptr, ptr %5, align 8, !tbaa !6
  %21 = load ptr, ptr %6, align 8, !tbaa !6
  invoke void @_ZN11BigUnsigned6bitXorERKS_S1_(ptr noundef nonnull align 8 dereferenceable(16) %7, ptr noundef nonnull align 8 dereferenceable(16) %20, ptr noundef nonnull align 8 dereferenceable(16) %21)
          to label %22 unwind label %24

22:                                               ; preds = %19
  invoke void @_ZN11BigUnsignedaSERKS_(ptr noundef nonnull align 8 dereferenceable(16) %13, ptr noundef nonnull align 8 dereferenceable(16) %7)
          to label %23 unwind label %24

23:                                               ; preds = %22
  call void @_ZN15NumberlikeArrayImED2Ev(ptr noundef nonnull align 8 dereferenceable(16) %7) #7
  call void @llvm.lifetime.end.p0(i64 16, ptr %7) #7
  br label %104

24:                                               ; preds = %22, %19
  %25 = landingpad { ptr, i32 }
          cleanup
  %26 = extractvalue { ptr, i32 } %25, 0
  store ptr %26, ptr %8, align 8
  %27 = extractvalue { ptr, i32 } %25, 1
  store i32 %27, ptr %9, align 4
  call void @_ZN15NumberlikeArrayImED2Ev(ptr noundef nonnull align 8 dereferenceable(16) %7) #7
  call void @llvm.lifetime.end.p0(i64 16, ptr %7) #7
  br label %105

28:                                               ; preds = %16
  call void @llvm.lifetime.start.p0(i64 4, ptr %10) #7
  call void @llvm.lifetime.start.p0(i64 8, ptr %11) #7
  call void @llvm.lifetime.start.p0(i64 8, ptr %12) #7
  %29 = load ptr, ptr %5, align 8, !tbaa !6
  %30 = getelementptr inbounds nuw %class.NumberlikeArray, ptr %29, i32 0, i32 1
  %31 = load i32, ptr %30, align 4, !tbaa !19
  %32 = load ptr, ptr %6, align 8, !tbaa !6
  %33 = getelementptr inbounds nuw %class.NumberlikeArray, ptr %32, i32 0, i32 1
  %34 = load i32, ptr %33, align 4, !tbaa !19
  %35 = icmp uge i32 %31, %34
  br i1 %35, label %36, label %39

36:                                               ; preds = %28
  %37 = load ptr, ptr %5, align 8, !tbaa !6
  store ptr %37, ptr %11, align 8, !tbaa !6
  %38 = load ptr, ptr %6, align 8, !tbaa !6
  store ptr %38, ptr %12, align 8, !tbaa !6
  br label %42

39:                                               ; preds = %28
  %40 = load ptr, ptr %6, align 8, !tbaa !6
  store ptr %40, ptr %11, align 8, !tbaa !6
  %41 = load ptr, ptr %5, align 8, !tbaa !6
  store ptr %41, ptr %12, align 8, !tbaa !6
  br label %42

42:                                               ; preds = %39, %36
  %43 = load ptr, ptr %11, align 8, !tbaa !6
  %44 = getelementptr inbounds nuw %class.NumberlikeArray, ptr %43, i32 0, i32 1
  %45 = load i32, ptr %44, align 4, !tbaa !19
  call void @_ZN15NumberlikeArrayImE8allocateEj(ptr noundef nonnull align 8 dereferenceable(16) %13, i32 noundef %45)
  store i32 0, ptr %10, align 4, !tbaa !21
  br label %46

46:                                               ; preds = %73, %42
  %47 = load i32, ptr %10, align 4, !tbaa !21
  %48 = load ptr, ptr %12, align 8, !tbaa !6
  %49 = getelementptr inbounds nuw %class.NumberlikeArray, ptr %48, i32 0, i32 1
  %50 = load i32, ptr %49, align 4, !tbaa !19
  %51 = icmp ult i32 %47, %50
  br i1 %51, label %52, label %76

52:                                               ; preds = %46
  %53 = load ptr, ptr %11, align 8, !tbaa !6
  %54 = getelementptr inbounds nuw %class.NumberlikeArray, ptr %53, i32 0, i32 2
  %55 = load ptr, ptr %54, align 8, !tbaa !20
  %56 = load i32, ptr %10, align 4, !tbaa !21
  %57 = zext i32 %56 to i64
  %58 = getelementptr inbounds nuw i64, ptr %55, i64 %57
  %59 = load i64, ptr %58, align 8, !tbaa !11
  %60 = load ptr, ptr %12, align 8, !tbaa !6
  %61 = getelementptr inbounds nuw %class.NumberlikeArray, ptr %60, i32 0, i32 2
  %62 = load ptr, ptr %61, align 8, !tbaa !20
  %63 = load i32, ptr %10, align 4, !tbaa !21
  %64 = zext i32 %63 to i64
  %65 = getelementptr inbounds nuw i64, ptr %62, i64 %64
  %66 = load i64, ptr %65, align 8, !tbaa !11
  %67 = xor i64 %59, %66
  %68 = getelementptr inbounds nuw %class.NumberlikeArray, ptr %13, i32 0, i32 2
  %69 = load ptr, ptr %68, align 8, !tbaa !20
  %70 = load i32, ptr %10, align 4, !tbaa !21
  %71 = zext i32 %70 to i64
  %72 = getelementptr inbounds nuw i64, ptr %69, i64 %71
  store i64 %67, ptr %72, align 8, !tbaa !11
  br label %73

73:                                               ; preds = %52
  %74 = load i32, ptr %10, align 4, !tbaa !21
  %75 = add i32 %74, 1
  store i32 %75, ptr %10, align 4, !tbaa !21
  br label %46, !llvm.loop !57

76:                                               ; preds = %46
  br label %77

77:                                               ; preds = %96, %76
  %78 = load i32, ptr %10, align 4, !tbaa !21
  %79 = load ptr, ptr %11, align 8, !tbaa !6
  %80 = getelementptr inbounds nuw %class.NumberlikeArray, ptr %79, i32 0, i32 1
  %81 = load i32, ptr %80, align 4, !tbaa !19
  %82 = icmp ult i32 %78, %81
  br i1 %82, label %83, label %99

83:                                               ; preds = %77
  %84 = load ptr, ptr %11, align 8, !tbaa !6
  %85 = getelementptr inbounds nuw %class.NumberlikeArray, ptr %84, i32 0, i32 2
  %86 = load ptr, ptr %85, align 8, !tbaa !20
  %87 = load i32, ptr %10, align 4, !tbaa !21
  %88 = zext i32 %87 to i64
  %89 = getelementptr inbounds nuw i64, ptr %86, i64 %88
  %90 = load i64, ptr %89, align 8, !tbaa !11
  %91 = getelementptr inbounds nuw %class.NumberlikeArray, ptr %13, i32 0, i32 2
  %92 = load ptr, ptr %91, align 8, !tbaa !20
  %93 = load i32, ptr %10, align 4, !tbaa !21
  %94 = zext i32 %93 to i64
  %95 = getelementptr inbounds nuw i64, ptr %92, i64 %94
  store i64 %90, ptr %95, align 8, !tbaa !11
  br label %96

96:                                               ; preds = %83
  %97 = load i32, ptr %10, align 4, !tbaa !21
  %98 = add i32 %97, 1
  store i32 %98, ptr %10, align 4, !tbaa !21
  br label %77, !llvm.loop !58

99:                                               ; preds = %77
  %100 = load ptr, ptr %11, align 8, !tbaa !6
  %101 = getelementptr inbounds nuw %class.NumberlikeArray, ptr %100, i32 0, i32 1
  %102 = load i32, ptr %101, align 4, !tbaa !19
  %103 = getelementptr inbounds nuw %class.NumberlikeArray, ptr %13, i32 0, i32 1
  store i32 %102, ptr %103, align 4, !tbaa !19
  call void @_ZN11BigUnsigned15zapLeadingZerosEv(ptr noundef nonnull align 8 dereferenceable(16) %13)
  call void @llvm.lifetime.end.p0(i64 8, ptr %12) #7
  call void @llvm.lifetime.end.p0(i64 8, ptr %11) #7
  call void @llvm.lifetime.end.p0(i64 4, ptr %10) #7
  br label %104

104:                                              ; preds = %99, %23
  ret void

105:                                              ; preds = %24
  %106 = load ptr, ptr %8, align 8
  %107 = load i32, ptr %9, align 4
  %108 = insertvalue { ptr, i32 } poison, ptr %106, 0
  %109 = insertvalue { ptr, i32 } %108, i32 %107, 1
  resume { ptr, i32 } %109
}